; Function Attrs: mustprogress uwtable
define noundef double @_ZNK5Ipopt11DenseVector8Nrm2ImplEv(ptr nocapture noundef nonnull readonly align 8 dereferenceable(248) %0) unnamed_addr #0 align 2 {
  %2 = getelementptr inbounds i8, ptr %0, i64 233
  %3 = load i8, ptr %2, align 1
  %4 = and i8 %3, 1
  %.not = icmp eq i8 %4, 0
  %5 = getelementptr inbounds i8, ptr %0, i64 56
  %6 = load ptr, ptr %5, align 8
  %7 = getelementptr inbounds i8, ptr %6, i64 12
  %8 = load i32, ptr %7, align 4
  br i1 %.not, label %16, label %9

9:                                                ; preds = %1
  %10 = sitofp i32 %8 to double
  %11 = tail call double @sqrt(double noundef %10) #15
  %12 = getelementptr inbounds i8, ptr %0, i64 240
  %13 = load double, ptr %12, align 8
  %14 = tail call noundef double @llvm.fabs.f64(double %13)
  %15 = fmul double %11, %14
  br label %20

16:                                               ; preds = %1
  %17 = getelementptr inbounds i8, ptr %0, i64 216
  %18 = load ptr, ptr %17, align 8
  %19 = tail call noundef double @_ZN5Ipopt10IpBlasNrm2EiPKdi(i32 noundef %8, ptr noundef %18, i32 noundef 1)
  br label %20

20:                                               ; preds = %16, %9
  %.0 = phi double [ %15, %9 ], [ %19, %16 ]
  ret double %.0
}